target datalayout = "e-m:e-p270:32:32-p271:32:32-p272:64:64-i64:64-i128:128-f80:128-n8:16:32:64-S128"
target triple = "x86_64-pc-linux-gnu"

%struct._lv_textarea_t = type { %struct._lv_obj_t, ptr, ptr, ptr, ptr, ptr, i32, i32, %struct.anon, i32, i32, i8 }
%struct._lv_obj_t = type { ptr, ptr, ptr, ptr, ptr, %struct.lv_area_t, i32, i16, i16 }
%struct.lv_area_t = type { i32, i32, i32, i32 }
%struct.anon = type { i32, i32, %struct.lv_area_t, i32, i8 }
%struct._lv_anim_t = type { ptr, ptr, ptr, ptr, ptr, ptr, ptr, ptr, ptr, i32, i32, i32, i32, i32, i32, i32, i32, i32, %union._lv_anim_path_para_t, i32, i32, i32, i8 }
%union._lv_anim_path_para_t = type { %struct.lv_anim_bezier3_para_t }
%struct.lv_anim_bezier3_para_t = type { i16, i16, i16, i16 }

; Function Attrs: nounwind uwtable
define internal void @auto_hide_characters(ptr noundef %0) #0 {
  %2 = alloca ptr, align 8
  %3 = alloca ptr, align 8
  %4 = alloca %struct._lv_anim_t, align 8
  store ptr %0, ptr %2, align 8, !tbaa !8
  call void @llvm.lifetime.start.p0(i64 8, ptr %3) #6
  %5 = load ptr, ptr %2, align 8, !tbaa !8
  store ptr %5, ptr %3, align 8, !tbaa !10
  %6 = load ptr, ptr %3, align 8, !tbaa !10
  %7 = getelementptr inbounds nuw %struct._lv_textarea_t, ptr %6, i32 0, i32 7
  %8 = load i32, ptr %7, align 4, !tbaa !23
  %9 = icmp eq i32 %8, 0
  br i1 %9, label %10, label %12

10:                                               ; preds = %1
  %11 = load ptr, ptr %2, align 8, !tbaa !8
  call void @pwd_char_hider(ptr noundef %11)
  br label %18

12:                                               ; preds = %1
  call void @llvm.lifetime.start.p0(i64 136, ptr %4) #6
  call void @lv_anim_init(ptr noundef %4)
  %13 = load ptr, ptr %3, align 8, !tbaa !10
  call void @lv_anim_set_var(ptr noundef %4, ptr noundef %13)
  call void @lv_anim_set_exec_cb(ptr noundef %4, ptr noundef @pwd_char_hider_anim)
  %14 = load ptr, ptr %3, align 8, !tbaa !10
  %15 = getelementptr inbounds nuw %struct._lv_textarea_t, ptr %14, i32 0, i32 7
  %16 = load i32, ptr %15, align 4, !tbaa !23
  call void @lv_anim_set_duration(ptr noundef %4, i32 noundef %16)
  call void @lv_anim_set_values(ptr noundef %4, i32 noundef 0, i32 noundef 1)
  call void @lv_anim_set_path_cb(ptr noundef %4, ptr noundef @lv_anim_path_step)
  call void @lv_anim_set_completed_cb(ptr noundef %4, ptr noundef @pwd_char_hider_anim_completed)
  %17 = call ptr @lv_anim_start(ptr noundef %4)
  call void @llvm.lifetime.end.p0(i64 136, ptr %4) #6
  br label %18

18:                                               ; preds = %12, %10
  call void @llvm.lifetime.end.p0(i64 8, ptr %3) #6
  ret void
}