; Function Attrs: nounwind uwtable
define internal fastcc void @auto_hide_characters(ptr noundef nonnull %0) unnamed_addr #0 {
  %2 = alloca %struct._lv_anim_t, align 8
  %3 = getelementptr inbounds nuw i8, ptr %0, i64 108
  %4 = load i32, ptr %3, align 4, !tbaa !3
  %5 = icmp eq i32 %4, 0
  br i1 %5, label %6, label %7

6:                                                ; preds = %1
  tail call fastcc void @pwd_char_hider(ptr noundef nonnull %0)
  br label %10

7:                                                ; preds = %1
  call void @llvm.lifetime.start.p0(i64 136, ptr nonnull %2) #10
  call void @lv_anim_init(ptr noundef nonnull %2) #10
  call void @lv_anim_set_var(ptr noundef nonnull %2, ptr noundef nonnull %0) #10
  call void @lv_anim_set_exec_cb(ptr noundef nonnull %2, ptr noundef nonnull @pwd_char_hider_anim) #10
  %8 = load i32, ptr %3, align 4, !tbaa !3
  call void @lv_anim_set_duration(ptr noundef nonnull %2, i32 noundef %8) #10
  call void @lv_anim_set_values(ptr noundef nonnull %2, i32 noundef 0, i32 noundef 1) #10
  call void @lv_anim_set_path_cb(ptr noundef nonnull %2, ptr noundef nonnull @lv_anim_path_step) #10
  call void @lv_anim_set_completed_cb(ptr noundef nonnull %2, ptr noundef nonnull @pwd_char_hider_anim_completed) #10
  %9 = call ptr @lv_anim_start(ptr noundef nonnull %2) #10
  call void @llvm.lifetime.end.p0(i64 136, ptr nonnull %2) #10
  br label %10

10:                                               ; preds = %7, %6
  ret void
}